; Function Attrs: mustprogress uwtable
define void @_ZNK6casadi8OptiNode6symvarERKNS_2MXE(ptr dead_on_unwind noalias writable sret(%"class.std::vector.11") align 8 %0, ptr noundef nonnull align 8 dereferenceable(672) %1, ptr noundef nonnull align 8 dereferenceable(8) %2) local_unnamed_addr #3 align 2 personality ptr @__gxx_personality_v0 {
  %4 = alloca %"class.std::vector.11", align 8
  call void @_ZN6casadi2MX6symvarERKS0_(ptr dead_on_unwind nonnull writable sret(%"class.std::vector.11") align 8 %4, ptr noundef nonnull align 8 dereferenceable(8) %2)
  invoke void @_ZNK6casadi8OptiNode4sortERKSt6vectorINS_2MXESaIS2_EE(ptr dead_on_unwind writable sret(%"class.std::vector.11") align 8 %0, ptr noundef nonnull align 8 dereferenceable(672) %1, ptr noundef nonnull align 8 dereferenceable(24) %4)
          to label %5 unwind label %12

5:                                                ; preds = %3
  %6 = load ptr, ptr %4, align 8
  %7 = getelementptr inbounds i8, ptr %4, i64 8
  %8 = load ptr, ptr %7, align 8
  %.not4.i.i.i.i = icmp eq ptr %6, %8
  br i1 %.not4.i.i.i.i, label %_ZSt8_DestroyIPN6casadi2MXES1_EvT_S3_RSaIT0_E.exit.i, label %.lr.ph.i.i.i.i

.lr.ph.i.i.i.i:                                   ; preds = %5, %.lr.ph.i.i.i.i
  %.05.i.i.i.i = phi ptr [ %9, %.lr.ph.i.i.i.i ], [ %6, %5 ]
  call void @_ZN6casadi2MXD1Ev(ptr noundef nonnull align 8 dereferenceable(8) %.05.i.i.i.i) #21
  %9 = getelementptr inbounds i8, ptr %.05.i.i.i.i, i64 8
  %.not.i.i.i.i = icmp eq ptr %9, %8
  br i1 %.not.i.i.i.i, label %_ZSt8_DestroyIPN6casadi2MXES1_EvT_S3_RSaIT0_E.exitthread-pre-split.i, label %.lr.ph.i.i.i.i, !llvm.loop !36

_ZSt8_DestroyIPN6casadi2MXES1_EvT_S3_RSaIT0_E.exitthread-pre-split.i: ; preds = %.lr.ph.i.i.i.i
  %.pr.i = load ptr, ptr %4, align 8
  br label %_ZSt8_DestroyIPN6casadi2MXES1_EvT_S3_RSaIT0_E.exit.i

_ZSt8_DestroyIPN6casadi2MXES1_EvT_S3_RSaIT0_E.exit.i: ; preds = %_ZSt8_DestroyIPN6casadi2MXES1_EvT_S3_RSaIT0_E.exitthread-pre-split.i, %5
  %10 = phi ptr [ %.pr.i, %_ZSt8_DestroyIPN6casadi2MXES1_EvT_S3_RSaIT0_E.exitthread-pre-split.i ], [ %6, %5 ]
  %.not.i.i.i = icmp eq ptr %10, null
  br i1 %.not.i.i.i, label %_ZNSt6vectorIN6casadi2MXESaIS1_EED2Ev.exit, label %11

11:                                               ; preds = %_ZSt8_DestroyIPN6casadi2MXES1_EvT_S3_RSaIT0_E.exit.i
  call void @_ZdlPv(ptr noundef nonnull %10) #22
  br label %_ZNSt6vectorIN6casadi2MXESaIS1_EED2Ev.exit

_ZNSt6vectorIN6casadi2MXESaIS1_EED2Ev.exit:       ; preds = %_ZSt8_DestroyIPN6casadi2MXES1_EvT_S3_RSaIT0_E.exit.i, %11
  ret void

12:                                               ; preds = %3
  %13 = landingpad { ptr, i32 }
          cleanup
  call void @_ZNSt6vectorIN6casadi2MXESaIS1_EED2Ev(ptr noundef nonnull align 8 dereferenceable(24) %4) #21
  resume { ptr, i32 } %13
}